; ModuleID = '24/2220.c'
source_filename = "24/2220.c"
target datalayout = "e-m:e-p270:32:32-p271:32:32-p272:64:64-i64:64-f80:128-n8:16:32:64-S128"
target triple = "x86_64-pc-linux-gnu"

@.str = private unnamed_addr constant [3 x i8] c"%c\00", align 1
@.str.1 = private unnamed_addr constant [4 x i8] c"%s\0A\00", align 1

; Function Attrs: noinline nounwind uwtable
define dso_local i32 @main() #0 {
  %1 = alloca i32, align 4
  %2 = alloca [200 x [100 x i8]], align 16
  %3 = alloca i8, align 1
  %4 = alloca [100 x i8], align 16
  %5 = alloca [100 x i8], align 16
  %6 = alloca i32, align 4
  %7 = alloca i32, align 4
  %8 = alloca i32, align 4
  %9 = alloca i32, align 4
  %10 = alloca i32, align 4
  store i32 0, i32* %1, align 4
  store i32 1000, i32* %9, align 4
  store i32 0, i32* %10, align 4
  store i32 0, i32* %6, align 4
  br label %11

11:                                               ; preds = %83, %0
  store i32 0, i32* %7, align 4
  br label %12

12:                                               ; preds = %34, %11
  %13 = call i32 (i8*, ...) @__isoc99_scanf(i8* getelementptr inbounds ([3 x i8], [3 x i8]* @.str, i64 0, i64 0), i8* %3)
  %14 = load i8, i8* %3, align 1
  %15 = sext i8 %14 to i32
  %16 = icmp eq i32 %15, 32
  br i1 %16, label %25, label %17

17:                                               ; preds = %12
  %18 = load i8, i8* %3, align 1
  %19 = sext i8 %18 to i32
  %20 = icmp eq i32 %19, 44
  br i1 %20, label %25, label %21

21:                                               ; preds = %17
  %22 = load i8, i8* %3, align 1
  %23 = sext i8 %22 to i32
  %24 = icmp eq i32 %23, 10
  br i1 %24, label %25, label %26

25:                                               ; preds = %21, %17, %12
  br label %37

26:                                               ; preds = %21
  %27 = load i8, i8* %3, align 1
  %28 = load i32, i32* %6, align 4
  %29 = sext i32 %28 to i64
  %30 = getelementptr inbounds [200 x [100 x i8]], [200 x [100 x i8]]* %2, i64 0, i64 %29
  %31 = load i32, i32* %7, align 4
  %32 = sext i32 %31 to i64
  %33 = getelementptr inbounds [100 x i8], [100 x i8]* %30, i64 0, i64 %32
  store i8 %27, i8* %33, align 1
  br label %34

34:                                               ; preds = %26
  %35 = load i32, i32* %7, align 4
  %36 = add nsw i32 %35, 1
  store i32 %36, i32* %7, align 4
  br label %12

37:                                               ; preds = %25
  %38 = load i32, i32* %6, align 4
  %39 = sext i32 %38 to i64
  %40 = getelementptr inbounds [200 x [100 x i8]], [200 x [100 x i8]]* %2, i64 0, i64 %39
  %41 = load i32, i32* %7, align 4
  %42 = sext i32 %41 to i64
  %43 = getelementptr inbounds [100 x i8], [100 x i8]* %40, i64 0, i64 %42
  store i8 0, i8* %43, align 1
  %44 = load i32, i32* %6, align 4
  %45 = sext i32 %44 to i64
  %46 = getelementptr inbounds [200 x [100 x i8]], [200 x [100 x i8]]* %2, i64 0, i64 %45
  %47 = getelementptr inbounds [100 x i8], [100 x i8]* %46, i64 0, i64 0
  %48 = call i64 @strlen(i8* %47) #4
  %49 = trunc i64 %48 to i32
  store i32 %49, i32* %8, align 4
  %50 = load i32, i32* %8, align 4
  %51 = icmp eq i32 %50, 0
  br i1 %51, label %52, label %53

52:                                               ; preds = %37
  br label %83

53:                                               ; preds = %37
  %54 = load i32, i32* %8, align 4
  %55 = load i32, i32* %10, align 4
  %56 = icmp sgt i32 %54, %55
  br i1 %56, label %57, label %65

57:                                               ; preds = %53
  %58 = load i32, i32* %8, align 4
  store i32 %58, i32* %10, align 4
  %59 = getelementptr inbounds [100 x i8], [100 x i8]* %4, i64 0, i64 0
  %60 = load i32, i32* %6, align 4
  %61 = sext i32 %60 to i64
  %62 = getelementptr inbounds [200 x [100 x i8]], [200 x [100 x i8]]* %2, i64 0, i64 %61
  %63 = getelementptr inbounds [100 x i8], [100 x i8]* %62, i64 0, i64 0
  %64 = call i8* @strcpy(i8* %59, i8* %63) #5
  br label %65

65:                                               ; preds = %57, %53
  %66 = load i32, i32* %8, align 4
  %67 = load i32, i32* %9, align 4
  %68 = icmp slt i32 %66, %67
  br i1 %68, label %69, label %77

69:                                               ; preds = %65
  %70 = load i32, i32* %8, align 4
  store i32 %70, i32* %9, align 4
  %71 = getelementptr inbounds [100 x i8], [100 x i8]* %5, i64 0, i64 0
  %72 = load i32, i32* %6, align 4
  %73 = sext i32 %72 to i64
  %74 = getelementptr inbounds [200 x [100 x i8]], [200 x [100 x i8]]* %2, i64 0, i64 %73
  %75 = getelementptr inbounds [100 x i8], [100 x i8]* %74, i64 0, i64 0
  %76 = call i8* @strcpy(i8* %71, i8* %75) #5
  br label %77

77:                                               ; preds = %69, %65
  %78 = load i8, i8* %3, align 1
  %79 = sext i8 %78 to i32
  %80 = icmp eq i32 %79, 10
  br i1 %80, label %81, label %82

81:                                               ; preds = %77
  br label %86

82:                                               ; preds = %77
  br label %83

83:                                               ; preds = %82, %52
  %84 = load i32, i32* %6, align 4
  %85 = add nsw i32 %84, 1
  store i32 %85, i32* %6, align 4
  br label %11

86:                                               ; preds = %81
  %87 = getelementptr inbounds [100 x i8], [100 x i8]* %4, i64 0, i64 0
  %88 = call i32 (i8*, ...) @printf(i8* getelementptr inbounds ([4 x i8], [4 x i8]* @.str.1, i64 0, i64 0), i8* %87)
  %89 = getelementptr inbounds [100 x i8], [100 x i8]* %5, i64 0, i64 0
  %90 = call i32 (i8*, ...) @printf(i8* getelementptr inbounds ([4 x i8], [4 x i8]* @.str.1, i64 0, i64 0), i8* %89)
  ret i32 0
}

declare dso_local i32 @__isoc99_scanf(i8*, ...) #1

; Function Attrs: nounwind readonly
declare dso_local i64 @strlen(i8*) #2

; Function Attrs: nounwind
declare dso_local i8* @strcpy(i8*, i8*) #3

declare dso_local i32 @printf(i8*, ...) #1


!llvm.module.flags = !{!0}
!llvm.ident = !{!1}

!0 = !{i32 1, !"wchar_size", i32 4}
!1 = !{!"clang version 10.0.0-4ubuntu1 "}
