; ModuleID = 'source-C-CXX/23/2220.c'
source_filename = "source-C-CXX/23/2220.c"
target datalayout = "e-m:e-p270:32:32-p271:32:32-p272:64:64-i64:64-f80:128-n8:16:32:64-S128"
target triple = "x86_64-pc-linux-gnu"

@.str = private unnamed_addr constant [3 x i8] c"%c\00", align 1

; Function Attrs: nofree nounwind sspstrong uwtable
define dso_local i32 @main() local_unnamed_addr #0 {
  %1 = alloca [200 x [100 x i8]], align 16
  %2 = alloca i8, align 1
  %3 = alloca [100 x i8], align 16
  %4 = alloca [100 x i8], align 16
  %5 = getelementptr inbounds [200 x [100 x i8]], [200 x [100 x i8]]* %1, i64 0, i64 0, i64 0
  call void @llvm.lifetime.start.p0i8(i64 20000, i8* nonnull %5) #6
  call void @llvm.lifetime.start.p0i8(i64 1, i8* nonnull %2) #6
  %6 = getelementptr inbounds [100 x i8], [100 x i8]* %3, i64 0, i64 0
  call void @llvm.lifetime.start.p0i8(i64 100, i8* nonnull %6) #6
  %7 = getelementptr inbounds [100 x i8], [100 x i8]* %4, i64 0, i64 0
  call void @llvm.lifetime.start.p0i8(i64 100, i8* nonnull %7) #6
  br label %8

8:                                                ; preds = %38, %0
  %9 = phi i64 [ %41, %38 ], [ 0, %0 ]
  %10 = phi i32 [ %39, %38 ], [ 1000, %0 ]
  %11 = phi i32 [ %40, %38 ], [ 0, %0 ]
  br label %12

12:                                               ; preds = %16, %8
  %13 = phi i64 [ %18, %16 ], [ 0, %8 ]
  %14 = call i32 (i8*, ...) @__isoc99_scanf(i8* getelementptr inbounds ([3 x i8], [3 x i8]* @.str, i64 0, i64 0), i8* nonnull %2)
  %15 = load i8, i8* %2, align 1, !tbaa !5
  switch i8 %15, label %16 [
    i8 32, label %19
    i8 44, label %19
    i8 10, label %19
  ]

16:                                               ; preds = %12
  %17 = getelementptr inbounds [200 x [100 x i8]], [200 x [100 x i8]]* %1, i64 0, i64 %9, i64 %13
  store i8 %15, i8* %17, align 1, !tbaa !5
  %18 = add nuw i64 %13, 1
  br label %12

19:                                               ; preds = %12, %12, %12
  %20 = and i64 %13, 4294967295
  %21 = getelementptr inbounds [200 x [100 x i8]], [200 x [100 x i8]]* %1, i64 0, i64 %9, i64 %20
  store i8 0, i8* %21, align 1, !tbaa !5
  %22 = getelementptr inbounds [200 x [100 x i8]], [200 x [100 x i8]]* %1, i64 0, i64 %9, i64 0
  %23 = call i64 @strlen(i8* noundef nonnull %22) #7
  %24 = trunc i64 %23 to i32
  %25 = icmp eq i32 %24, 0
  br i1 %25, label %38, label %26

26:                                               ; preds = %19
  %27 = icmp slt i32 %11, %24
  br i1 %27, label %28, label %30

28:                                               ; preds = %26
  %29 = call i8* @strcpy(i8* noundef nonnull %6, i8* noundef nonnull %22) #6
  br label %30

30:                                               ; preds = %28, %26
  %31 = phi i32 [ %24, %28 ], [ %11, %26 ]
  %32 = icmp sgt i32 %10, %24
  br i1 %32, label %33, label %35

33:                                               ; preds = %30
  %34 = call i8* @strcpy(i8* noundef nonnull %7, i8* noundef nonnull %22) #6
  br label %35

35:                                               ; preds = %33, %30
  %36 = phi i32 [ %24, %33 ], [ %10, %30 ]
  %37 = icmp eq i8 %15, 10
  br i1 %37, label %42, label %38

38:                                               ; preds = %35, %19
  %39 = phi i32 [ %10, %19 ], [ %36, %35 ]
  %40 = phi i32 [ %11, %19 ], [ %31, %35 ]
  %41 = add nuw i64 %9, 1
  br label %8

42:                                               ; preds = %35
  %43 = call i32 @puts(i8* nonnull %6)
  %44 = call i32 @puts(i8* nonnull %7)
  call void @llvm.lifetime.end.p0i8(i64 100, i8* nonnull %7) #6
  call void @llvm.lifetime.end.p0i8(i64 100, i8* nonnull %6) #6
  call void @llvm.lifetime.end.p0i8(i64 1, i8* nonnull %2) #6
  call void @llvm.lifetime.end.p0i8(i64 20000, i8* nonnull %5) #6
  ret i32 0
}

; Function Attrs: argmemonly mustprogress nofree nosync nounwind willreturn
declare void @llvm.lifetime.start.p0i8(i64 immarg, i8* nocapture) #1

; Function Attrs: nofree nounwind
declare noundef i32 @__isoc99_scanf(i8* nocapture noundef readonly, ...) local_unnamed_addr #2

; Function Attrs: argmemonly mustprogress nofree nounwind readonly willreturn
declare i64 @strlen(i8* nocapture) local_unnamed_addr #3

; Function Attrs: argmemonly mustprogress nofree nounwind willreturn
declare i8* @strcpy(i8* noalias returned writeonly, i8* noalias nocapture readonly) local_unnamed_addr #4

; Function Attrs: argmemonly mustprogress nofree nosync nounwind willreturn
declare void @llvm.lifetime.end.p0i8(i64 immarg, i8* nocapture) #1

; Function Attrs: nofree nounwind
declare noundef i32 @puts(i8* nocapture noundef readonly) local_unnamed_addr #5


!llvm.module.flags = !{!0, !1, !2, !3}
!llvm.ident = !{!4}

!0 = !{i32 1, !"wchar_size", i32 4}
!1 = !{i32 7, !"PIC Level", i32 2}
!2 = !{i32 7, !"PIE Level", i32 2}
!3 = !{i32 7, !"uwtable", i32 1}
!4 = !{!"clang version 13.0.0"}
!5 = !{!6, !6, i64 0}
!6 = !{!"omnipotent char", !7, i64 0}
!7 = !{!"Simple C/C++ TBAA"}
